(dp0
S'recon_losses'
p1
(lp2
cnumpy.core.multiarray
scalar
p3
(cnumpy
dtype
p4
(S'f8'
p5
I0
I1
tp6
Rp7
(I3
S'<'
p8
NNNI-1
I-1
I0
tp9
bS'\xbe?(\xceV\xd2S@'
p10
tp11
Rp12
asS'corr_losses'
p13
(lp14
g3
(g7
S"\xbd\x19'd\xf5\xc9\xc7\xbf"
p15
tp16
Rp17
asS'kl_losses'
p18
(lp19
g3
(g4
(S'f4'
p20
I0
I1
tp21
Rp22
(I3
S'<'
p23
NNNI-1
I-1
I0
tp24
bS'\xec\xf4\x86@'
p25
tp26
Rp27
as.